; Function Attrs: mustprogress nofree norecurse nosync nounwind null_pointer_is_valid sspstrong willreturn memory(read, inaccessiblemem: none) uwtable
define noundef i32 @_ZNK8UatModel8rowCountERK11QModelIndex(ptr noundef readonly align 8 captures(none) dereferenceable_or_null(80) %0, ptr noundef readonly align 8 captures(none) dereferenceable(24) %1) unnamed_addr #7 align 2 {
  %3 = load i32, ptr %1, align 8
  %4 = icmp sgt i32 %3, -1
  %5 = getelementptr inbounds nuw i8, ptr %1, i64 4
  %6 = load i32, ptr %5, align 4
  %7 = icmp sgt i32 %6, -1
  %or.cond = select i1 %4, i1 %7, i1 false
  %8 = getelementptr inbounds nuw i8, ptr %1, i64 16
  %9 = load ptr, ptr %8, align 8
  %10 = icmp ne ptr %9, null
  %or.cond6 = select i1 %or.cond, i1 %10, i1 false
  br i1 %or.cond6, label %17, label %_ZNK11QModelIndex7isValidEv.exit.thread

_ZNK11QModelIndex7isValidEv.exit.thread:          ; preds = %2
  %11 = getelementptr inbounds nuw i8, ptr %0, i64 16
  %12 = load ptr, ptr %11, align 8
  %13 = getelementptr inbounds nuw i8, ptr %12, i64 136
  %14 = load ptr, ptr %13, align 8
  %15 = getelementptr inbounds nuw i8, ptr %14, i64 8
  %16 = load i32, ptr %15, align 8
  br label %17

17:                                               ; preds = %2, %_ZNK11QModelIndex7isValidEv.exit.thread
  %.0 = phi i32 [ %16, %_ZNK11QModelIndex7isValidEv.exit.thread ], [ 0, %2 ]
  ret i32 %.0
}